GAS LISTING math.S 			page 1


   1              	/**
   2              	 * math.S -- –≤—ã—á–∏—Å–ª—è–µ—Ç –∏ –ø–µ—á–∞—Ç–∞–µ—Ç —á–∏—Å–ª–æ –ü–∏
   3              	 *
   4              	 * Copyright (c) 2014 Petrozavodsk State University
   5              	 *
   6              	 * Permission is hereby granted, free of charge, to any person obtaining
   7              	 * a copy of this software and associated documentation files (the
   8              	 * "Software"), to deal in the Software without restriction, including
   9              	 * without limitation the rights to use, copy, modify, merge, publish,
  10              	 * distribute, sublicense, and/or sell copies of the Software, and to
  11              	 * permit persons to whom the Software is furnished to do so, subject to
  12              	 * the following conditions:
  13              	 *
  14              	 * The above copyright notice and this permission notice shall be
  15              	 * included in all copies or substantial portions of the Software.
  16              		*/
  17              	
  18              	
  19              		/* –û–±—ä—è–≤–ª—è–µ–º –≤–Ω–µ—à–Ω–∏–µ –∏–º–µ–Ω–∞ (–Ω–µ–æ–±—è–∑–∞—Ç–µ–ª—å–Ω–æ) */
  20              	
  21              		.extern printf
  22              		.extern scanf
  23              	
  24              	
  25              		/* –°–µ–∫—Ü–∏—è –¥–∞–Ω–Ω—ã—Ö */
  26              	
  27              		.data
  28              	
  29              	fmt:
  30 0000 252E3235 		.asciz "%.25lf\n" # —Ñ–æ—Ä–º–∞—Ç–Ω–∞—è —Å—Ç—Ä–æ–∫–∞ –¥–ª—è printf
  30      6C660A00 
  31              	
  32              	dbl:
  33 0008 00000000 		.double .0	# –≤–µ—â–µ—Å—Ç–≤–µ–Ω–Ω–æ–∑–Ω–∞—á–Ω–æ–µ —á–∏—Å–ª–æ —Ç–∏–ø–∞ double
  33      00000000 
  34              	
  35              	
  36              		/* –°–µ–∫—Ü–∏—è –∫–æ–º–∞–Ω–¥ –ø—Ä–æ—Ü–µ—Å—Å–æ—Ä–∞ */
  37              		.text
  38              	
  39              		.global main	# –∏–º—è —Ç–æ—á–∫–∏ –≤—Ö–æ–¥–∞ –¥–ª—è –∫–æ–º–ø–æ–Ω–æ–≤—â–∏–∫–∞
  40              	
  41              	
  42              		/**
  43              	 * main
  44              	 *   –≥–ª–∞–≤–Ω–∞—è —Ñ—É–Ω–∫—Ü–∏—è —è–∑—ã–∫–∞ –°–∏ - —Ç–æ—á–∫–∞ –≤—Ö–æ–¥–∞ –≤ –ø—Ä–æ–≥—Ä–∞–º–º—É
  45              		*/
  46              	main:
  47 0000 55       		pushl %ebp		# —Å–æ—Ö—Ä–∞–Ω—è–µ–º –∫–æ–Ω—Ç–µ–∫—Å—Ç —Å—Ç–µ–∫–∞
  48 0001 89E5     		movl %esp, %ebp
  49              	
  50 0003 68080000 		pushl $dbl		# –ø–µ—Ä–µ–¥–∞–µ–º –∞–¥—Ä–µ—Å –¥–ª—è —Ä–∞–∑–º–µ—â–µ–Ω–∏—è —Ä–µ–∑—É–ª—å—Ç–∞—Ç–∞
  50      00
  51 0008 E8640000 		call calc_pi_1	# –≤—ã–∑—ã–≤–∞–µ–º —Ñ—É–Ω–∫—Ü–∏—é —Ä–∞—Å—á–µ—Ç–∞ —á–∏—Å–ª–∞ –ü–∏
  51      00
  52              		##  —Å –ø–æ–º–æ—â—å—é –∏–Ω—Å—Ç—Ä—É–∫—Ü–∏–∏ fldpi
  53 000d 83C404   		addl $4, %esp	# –≤–æ—Å—Å—Ç–∞–Ω–∞–≤–ª–∏–≤–∞–µ–º —É–∫–∞–∑–∞—Ç–µ–ª—å —Å—Ç–µ–∫–∞
GAS LISTING math.S 			page 2


  54              	
  55 0010 68080000 		pushl $dbl		# –ø–µ—Ä–µ–¥–∞–µ–º –∞–¥—Ä–µ—Å —á–∏—Å–ª–∞ –ü–∏
  55      00
  56 0015 E83B0000 		call print_double_by_ptr # –≤—ã–∑—ã–≤–∞–µ–º —Ñ—É–Ω–∫—Ü–∏—é –≤—ã–≤–æ–¥–∞ —á–∏—Å–ª–∞ –Ω–∞ —ç–∫—Ä–∞–Ω
  56      00
  57 001a 83C404   		addl $4, %esp	 # –≤–æ—Å—Å—Ç–∞–Ω–∞–≤–ª–∏–≤–∞–µ–º —É–∫–∞–∑–∞—Ç–µ–ª—å —Å—Ç–µ–∫–∞
  58              	
  59 001d 68080000 		pushl $dbl		# –ø–µ—Ä–µ–¥–∞–µ–º –∞–¥—Ä–µ—Å –¥–ª—è —Ä–∞–∑–º–µ—â–µ–Ω–∏—è —Ä–µ–∑—É–ª—å—Ç–∞—Ç–∞
  59      00
  60 0022 E8580000 		call calc_pi_2	# –≤—ã–∑—ã–≤–∞–µ–º —Ñ—É–Ω–∫—Ü–∏—é —Ä–∞—Å—á–µ—Ç–∞ —á–∏—Å–ª–∞ –ü–∏
  60      00
  61              		##  —Å –ø–æ–º–æ—â—å—é —Ñ–æ—Ä–º—É–ª—ã –ú—ç—á–∏–Ω–∞
  62 0027 83C404   		addl $4, %esp	# –≤–æ—Å—Å—Ç–∞–Ω–∞–≤–ª–∏–≤–∞–µ–º —É–∫–∞–∑–∞—Ç–µ–ª—å —Å—Ç–µ–∫–∞
  63              	
  64 002a 68080000 		pushl $dbl		# –ø–µ—Ä–µ–¥–∞–µ–º –∞–¥—Ä–µ—Å —á–∏—Å–ª–∞ –ü–∏
  64      00
  65 002f E8210000 		call print_double_by_ptr # –≤—ã–∑—ã–≤–∞–µ–º —Ñ—É–Ω–∫—Ü–∏—é –≤—ã–≤–æ–¥–∞ —á–∏—Å–ª–∞ –Ω–∞ —ç–∫—Ä–∞–Ω
  65      00
  66 0034 83C404   		addl $4, %esp	 # –≤–æ—Å—Å—Ç–∞–Ω–∞–≤–ª–∏–≤–∞–µ–º —É–∫–∞–∑–∞—Ç–µ–ª—å —Å—Ç–µ–∫–∞
  67              	
  68 0037 68080000 		pushl $dbl		# –ø–µ—Ä–µ–¥–∞–µ–º –∞–¥—Ä–µ—Å –¥–ª—è —Ä–∞–∑–º–µ—â–µ–Ω–∏—è —Ä–µ–∑—É–ª—å—Ç–∞—Ç–∞
  68      00
  69 003c E87C0000 		call calc_pi_3	# –≤—ã–∑—ã–≤–∞–µ–º —Ñ—É–Ω–∫—Ü–∏—é —Ä–∞—Å—á–µ—Ç–∞ —á–∏—Å–ª–∞ –ü–∏
  69      00
  70              		##  —Å –ø–æ–º–æ—â—å—é —Ñ–æ—Ä–º—É–ª—ã –ú—ç—á–∏–Ω–∞
  71 0041 83C404   		addl $4, %esp	# –≤–æ—Å—Å—Ç–∞–Ω–∞–≤–ª–∏–≤–∞–µ–º —É–∫–∞–∑–∞—Ç–µ–ª—å —Å—Ç–µ–∫–∞
  72              	
  73 0044 68080000 		pushl $dbl		# –ø–µ—Ä–µ–¥–∞–µ–º –∞–¥—Ä–µ—Å —á–∏—Å–ª–∞ –ü–∏
  73      00
  74 0049 E8070000 		call print_double_by_ptr # –≤—ã–∑—ã–≤–∞–µ–º —Ñ—É–Ω–∫—Ü–∏—é –≤—ã–≤–æ–¥–∞ —á–∏—Å–ª–∞ –Ω–∞ —ç–∫—Ä–∞–Ω
  74      00
  75 004e 83C404   		addl $4, %esp	 # –≤–æ—Å—Å—Ç–∞–Ω–∞–≤–ª–∏–≤–∞–µ–º —É–∫–∞–∑–∞—Ç–µ–ª—å —Å—Ç–µ–∫–∞
  76              	
  77 0051 89EC     		movl %ebp, %esp	# –≤–æ—Å—Å—Ç–∞–Ω–∞–≤–ª–∏–≤–∞–µ–º –∫–æ–Ω—Ç–µ–∫—Å—Ç —Å—Ç–µ–∫–∞
  78 0053 5D       		popl %ebp
  79              	
  80 0054 C3       		ret			# –∑–∞–≤–µ—Ä—à–∞–µ–º –≤—ã–ø–æ–ª–Ω–µ–Ω–∏–µ –ø—Ä–æ–≥—Ä–∞–º–º—ã
  81              	
  82              	
  83              		/** print_double_by_ptr
  84              	 *    –≤—ã–≤–æ–¥–∏—Ç –≤–µ—â–µ—Å—Ç–≤–µ–Ω–Ω–æ–∑–Ω–∞—á–Ω–æ–µ —á–∏—Å–ª–æ —Ç–∏–ø–∞ double –Ω–∞ —ç–∫—Ä–∞–
  85              	 *    —Ñ—É–Ω–∫—Ü–∏–∏ printf —Å—Ç–∞–Ω–¥–∞—Ä—Ç–Ω–æ–π –±–∏–±–ª–∏–æ—Ç–µ–∫–∏ —è–∑—ã–∫–∞ –°–∏
  86              		*/
  87              	print_double_by_ptr:
  88 0055 55       		pushl %ebp		# —Å–æ—Ö—Ä–∞–Ω—è–µ–º –∫–æ–Ω—Ç–µ–∫—Å—Ç —Å—Ç–µ–∫–∞
  89 0056 89E5     		movl %esp, %ebp
  90              	
  91 0058 8B4508   		movl 8(%ebp), %eax	# –ø–æ–ª—É—á–∞–µ–º —É–∫–∞–∑–∞—Ç–µ–ª—å –Ω–∞ —á–∏—Å–ª–æ
  92 005b FF7004   		pushl 4(%eax)	# —Å–æ—Ö—Ä–∞–Ω—è–µ–º —Å—Ç–∞—Ä—à—É—é –ø–æ–ª–æ–≤–∏–Ω—É
  93 005e FF30     		pushl (%eax)	# —Å–æ—Ö—Ä–∞–Ω—è–µ–º –º–ª–∞–¥—à—É—é –ø–æ–ª–æ–≤–∏–Ω—É
  94 0060 68000000 		pushl $fmt	# —Å–æ—Ö—Ä–∞–Ω—è–µ–º –∞–¥—Ä–µ—Å —Ñ–æ—Ä–º–∞—Ç–Ω–æ–π —Å—Ç—Ä–æ–∫–∏
  94      00
  95 0065 E8FCFFFF 		call printf	# –≤—ã–≤–æ–¥–∏–º –Ω–∞ —ç–∫—Ä–∞–Ω
  95      FF
  96 006a 83C40C   		addl $12, %esp	# –≤–æ—Å—Å—Ç–∞–Ω–∞–≤–ª–∏–≤–∞–µ–º —É–∫–∞–∑–∞—Ç–µ–ª—å —Å—Ç–µ–∫–∞
  97              	
  98 006d 89EC     		movl %ebp, %esp	# –≤–æ—Å—Å—Ç–∞–Ω–∞–≤–ª–∏–≤–∞–µ–º –∫–æ–Ω—Ç–µ–∫—Å—Ç —Å—Ç–µ–∫–∞
GAS LISTING math.S 			page 3


  99 006f 5D       		popl %ebp
 100 0070 C3       		ret			# –∑–∞–≤–µ—Ä—à–∞–µ–º –ø–æ–¥–ø—Ä–æ–≥—Ä–∞–º–º—É
 101              	
 102              	
 103              		/** calc_pi_1
 104              	 *    –≤—ã—á–∏—Å–ª—è–µ—Ç –∑–Ω–∞—á–µ–Ω–∏–µ —á–∏—Å–ª–∞ –ø–∏ —Å –ø–æ–º–æ—â—å—é –≤—Å—Ç—Ä–æ–µ–Ω–Ω–æ–π —Ñ
 105              	 *    —á–∏—Å–ª–∞ –ø–∏ –Ω–∞ –≤–µ—Ä—à–∏–Ω—É —Å—Ç–µ–∫–∞ fpu
 106              		*/
 107              	calc_pi_1:
 108 0071 55       		pushl %ebp		# —Å–æ—Ö—Ä–∞–Ω—è–µ–º –∫–æ–Ω—Ç–µ–∫—Å—Ç —Å—Ç–µ–∫–∞
 109 0072 89E5     		movl %esp, %ebp
 110              	
 111 0074 D9EB     		fldpi		# –∑–∞–≥—Ä—É–∂–∞–µ–º —á–∏—Å–ª–æ –ü–∏ –Ω–∞ –≤–µ—Ä—à–∏–Ω—É —Å—Ç–µ–∫–∞
 112              	
 113 0076 8B4508   		movl 8(%ebp), %eax	# –∏–∑–≤–ª–µ–∫–∞–µ–º –∏–∑ –ø–∞—Ä–∞–º–µ—Ç—Ä–∞ –∞–¥—Ä–µ—Å
 114 0079 DD18     		fstpl (%eax)	# –≤—ã—Ç–∞–ª–∫–∏–≤–∞–µ–º —Ä–µ–∑—É–ª—å—Ç–∞—Ç –ø–æ –∞–¥—Ä–µ—Å—É
 115              	
 116 007b 89EC     		movl %ebp, %esp	# –≤–æ—Å—Å—Ç–∞–Ω–∞–≤–ª–∏–≤–∞–µ–º –∫–æ–Ω—Ç–µ–∫—Å—Ç —Å—Ç–µ–∫–∞
 117 007d 5D       		popl %ebp
 118 007e C3       		ret			# –∑–∞–≤–µ—Ä—à–∞–µ–º –ø–æ–¥–ø—Ä–æ–≥—Ä–∞–º–º—É
 119              	
 120              	
 121              		/** calc_pi_2
 122              	 *    –≤—ã—á–∏—Å–ª—è–µ—Ç –∑–Ω–∞—á–µ–Ω–∏–µ —á–∏—Å–ª–∞ –ø–∏ —Å –ø–æ–º–æ—â—å—é —Ñ–æ—Ä–º—É–ª—ã –ú—ç—á–∏
 123              		*/
 124              	calc_pi_2:
 125 007f 55       		pushl %ebp		# —Å–æ—Ö—Ä–∞–Ω—è–µ–º –∫–æ–Ω—Ç–µ–∫—Å—Ç —Å—Ç–µ–∫–∞
 126 0080 89E5     		movl %esp, %ebp
 127              	
 128 0082 83EC04   		subl $4, %esp	# —Ä–µ–∑–µ—Ä–≤–∏—Ä—É–µ–º –ø–∞–º—è—Ç—å –ø–æ–¥ –ª–æ–∫–∞–ª—å–Ω—É—é –ø–µ—Ä–µ–º–µ–Ω–Ω—É—é
 129              	
 130              	
 131 0085 D9E8     		fld1		# st(0) <- 1
 132 0087 C745FCEF 		movl $239, -4(%ebp)
 132      000000
 133 008e DF45FC   		fild -4(%ebp)	# st(0) <- 239, st(1) <- 1
 134 0091 D9F3     		fpatan	# st(0) <- arctg(1/239)
 135              	
 136 0093 D9E8     		fld1		# st(0) <- 1, st(0) <- arctg(1/239)
 137 0095 C745FC05 		movl $5, -4(%ebp)
 137      000000
 138 009c DF45FC   		fild -4(%ebp)	# st(0) <- 5, st(1) <- 1, st(2) <- arctg(1/239)
 139 009f D9F3     		fpatan	# st(0) <- arctg(1/5), st(1) <- arctg(1/239)
 140              	
 141 00a1 C745FC04 		movl $4, -4(%ebp)
 141      000000
 142 00a8 DF45FC   		fild -4(%ebp)	# st(0) <- 4, st(1) <- arctg(1/5), st(2) <- arctg(1/239)
 143 00ab DEC9     		fmulp	# st(0) <- 4 * arctg(1/5), st(1) <- arctg(1/239)
 144              	
 145 00ad DEE1     		fsubp		# st(0) <- 4 * arctg(1/5) - arctg(1/239)
 146              	
 147 00af DF45FC   		fild -4(%ebp)	# st(0) <- 4, st(1) <- 4 * arctg(1/5) - arctg(1/239)
 148 00b2 DEC9     		fmulp	# st(0) <- 4 * (4 * arctg(1/5) - arctg(1/239))
 149              	
 150 00b4 8B4508   		movl 8(%ebp), %eax	# –∏–∑–≤–ª–µ–∫–∞–µ–º –∏–∑ –ø–∞—Ä–∞–º–µ—Ç—Ä–∞ –∞–¥—Ä–µ—Å
 151 00b7 DD18     		fstpl (%eax)	# –≤—ã—Ç–∞–ª–∫–∏–≤–∞–µ–º —Ä–µ–∑—É–ª—å—Ç–∞—Ç –ø–æ –∞–¥—Ä–µ—Å—É
 152              	
GAS LISTING math.S 			page 4


 153 00b9 89EC     		movl %ebp, %esp	# –≤–æ—Å—Å—Ç–∞–Ω–∞–≤–ª–∏–≤–∞–µ–º –∫–æ–Ω—Ç–µ–∫—Å—Ç —Å—Ç–µ–∫–∞
 154 00bb 5D       		popl %ebp
 155              	
 156 00bc C3       		ret			# –∑–∞–≤–µ—Ä—à–∞–µ–º –ø–æ–¥–ø—Ä–æ–≥—Ä–∞–º–º—É
 157              	
 158              	calc_pi_3:
 159 00bd 55       		pushl %ebp		# —Å–æ—Ö—Ä–∞–Ω—è–µ–º –∫–æ–Ω—Ç–µ–∫—Å—Ç —Å—Ç–µ–∫–∞
 160 00be 89E5     		movl %esp, %ebp
 161              	
 162 00c0 83EC04   		subl $4, %esp	# —Ä–µ–∑–µ—Ä–≤–∏—Ä—É–µ–º –ø–∞–º—è—Ç—å –ø–æ–¥ –ª–æ–∫–∞–ª—å–Ω—É—é –ø–µ—Ä–µ–º–µ–Ω–Ω—É—é
 163              	
 164 00c3 D9E8     		fld1
 165 00c5 C745FC39 		movl $57, -4(%ebp)
 165      000000
 166 00cc DF45FC   		fild -4(%ebp)
 167 00cf D9F3     		fpatan			# arctan(1/57)
 168              	
 169 00d1 C745FC2C 		movl $44, -4(%ebp)
 169      000000
 170 00d8 DF45FC   		fild -4(%ebp)
 171 00db DEC9     		fmulp 			# 44arctan(1/57)
 172              	
 173 00dd D9E8     		fld1
 174 00df C745FCEF 		movl $239, -4(%ebp)
 174      000000
 175 00e6 DF45FC   		fild -4(%ebp)
 176 00e9 D9F3     		fpatan			# arctan(1/239)
 177              	
 178 00eb C745FC07 		movl $7, -4(%ebp)
 178      000000
 179 00f2 DF45FC   		fild -4(%ebp)
 180 00f5 DEC9     		fmulp 			# 7arctan(1/239)
 181              	
 182 00f7 DEC1     		faddp			# 44arctan(1/57) + 7arctan(1/239)
 183              	
 184 00f9 D9E8     		fld1
 185 00fb C745FCAA 		movl $682, -4(%ebp)
 185      020000
 186 0102 DF45FC   		fild -4(%ebp)
 187 0105 D9F3     		fpatan			# arctan(1/682)
 188              	
 189 0107 C745FC0C 		movl $12, -4(%ebp)
 189      000000
 190 010e DF45FC   		fild -4(%ebp)
 191 0111 DEC9     		fmulp 			# 12arctan(1/682)
 192              	
 193 0113 DEE1     		fsubp			# 44arctan(1/57) + 7arctan(1/239) - 12arctan(1/682)
 194              		
 195 0115 D9E8     		fld1
 196 0117 C745FC8F 		movl $12943, -4(%ebp)
 196      320000
 197 011e DF45FC   		fild -4(%ebp)
 198 0121 D9F3     		fpatan			# arctan(1/12943)
 199              	
 200 0123 C745FC18 		movl $24, -4(%ebp)
 200      000000
 201 012a DF45FC   		fild -4(%ebp)
GAS LISTING math.S 			page 5


 202 012d DEC9     		fmulp 			# 24arctan(1/12943)
 203              	
 204 012f DEC1     		faddp			# 44arctan(1/57) + 7arctan(1/239) - 12arctan(1/682)
 205              					# + 24arctan(1/12943)
 206 0131 C745FC04 		movl $4, -4(%ebp)
 206      000000
 207 0138 DF45FC   		fild -4(%ebp)
 208 013b DEC9     		fmulp			# –ü–æ–ª—É—á–∏–ª–∏ pi
 209              	
 210 013d 8B4508   		movl 8(%ebp), %eax	# –∏–∑–≤–ª–µ–∫–∞–µ–º –∏–∑ –ø–∞—Ä–∞–º–µ—Ç—Ä–∞ –∞–¥—Ä–µ—Å
 211 0140 DD18     		fstpl (%eax)		# –≤—ã—Ç–∞–ª–∫–∏–≤–∞–µ–º —Ä–µ–∑—É–ª—å—Ç–∞—Ç –ø–æ –∞–¥—Ä–µ—Å—É
 212              	
 213 0142 89EC     		movl %ebp, %esp		# –≤–æ—Å—Å—Ç–∞–Ω–∞–≤–ª–∏–≤–∞–µ–º –∫–æ–Ω—Ç–µ–∫—Å—Ç —Å—Ç–µ–∫–∞
 214 0144 5D       		popl %ebp
 215              		
 216 0145 C3       		ret
GAS LISTING math.S 			page 6


DEFINED SYMBOLS
              math.S:29     .data:0000000000000000 fmt
              math.S:32     .data:0000000000000008 dbl
              math.S:46     .text:0000000000000000 main
              math.S:107    .text:0000000000000071 calc_pi_1
              math.S:87     .text:0000000000000055 print_double_by_ptr
              math.S:124    .text:000000000000007f calc_pi_2
              math.S:158    .text:00000000000000bd calc_pi_3

UNDEFINED SYMBOLS
printf
